; Function Attrs: nounwind uwtable
define ptr @PKCS7_digest_from_attributes(ptr noundef %0) local_unnamed_addr #0 {
  %2 = tail call i32 @X509at_get_attr_by_NID(ptr noundef %0, i32 noundef 51, i32 noundef -1) #4
  %3 = icmp slt i32 %2, 0
  br i1 %3, label %get_attribute.exit.thread, label %get_attribute.exit

get_attribute.exit:                               ; preds = %1
  %4 = tail call ptr @X509at_get_attr(ptr noundef %0, i32 noundef %2) #4
  %5 = tail call ptr @X509_ATTRIBUTE_get0_type(ptr noundef %4, i32 noundef 0) #4
  %6 = icmp eq ptr %5, null
  br i1 %6, label %get_attribute.exit.thread, label %7

7:                                                ; preds = %get_attribute.exit
  %8 = getelementptr inbounds nuw i8, ptr %5, i64 8
  %9 = load ptr, ptr %8, align 8, !tbaa !14
  br label %get_attribute.exit.thread

get_attribute.exit.thread:                        ; preds = %1, %get_attribute.exit, %7
  %.0 = phi ptr [ %9, %7 ], [ null, %get_attribute.exit ], [ null, %1 ]
  ret ptr %.0
}